target datalayout = "e-m:e-p270:32:32-p271:32:32-p272:64:64-i64:64-i128:128-f80:128-n8:16:32:64-S128"
target triple = "x86_64-pc-linux-gnu"

%struct.config_generic = type { ptr, i32, i32, ptr, ptr, i32, i32, i32, i32, i32, i32, i32, i32, i32, ptr, ptr, %struct.dlist_node, %struct.slist_node, %struct.slist_node, ptr, ptr, i32 }
%struct.dlist_node = type { ptr, ptr }
%struct.slist_node = type { ptr }
%struct.config_enum = type { %struct.config_generic, ptr, i32, ptr, ptr, ptr, ptr, i32, ptr }
%struct.config_enum_entry = type { ptr, i32, i8 }

; Function Attrs: nounwind uwtable
define dso_local zeroext i1 @config_enum_lookup_by_name(ptr noundef %0, ptr noundef %1, ptr noundef %2) #0 {
  %4 = alloca i1, align 1
  %5 = alloca ptr, align 8
  %6 = alloca ptr, align 8
  %7 = alloca ptr, align 8
  %8 = alloca ptr, align 8
  %9 = alloca i32, align 4
  store ptr %0, ptr %5, align 8
  store ptr %1, ptr %6, align 8
  store ptr %2, ptr %7, align 8
  call void @llvm.lifetime.start.p0(i64 8, ptr %8) #16
  %10 = load ptr, ptr %5, align 8
  %11 = getelementptr inbounds nuw %struct.config_enum, ptr %10, i32 0, i32 3
  %12 = load ptr, ptr %11, align 8
  store ptr %12, ptr %8, align 8
  br label %13

13:                                               ; preds = %36, %3
  %14 = load ptr, ptr %8, align 8
  %15 = icmp ne ptr %14, null
  br i1 %15, label %16, label %21

16:                                               ; preds = %13
  %17 = load ptr, ptr %8, align 8
  %18 = getelementptr inbounds nuw %struct.config_enum_entry, ptr %17, i32 0, i32 0
  %19 = load ptr, ptr %18, align 8
  %20 = icmp ne ptr %19, null
  br label %21

21:                                               ; preds = %16, %13
  %22 = phi i1 [ false, %13 ], [ %20, %16 ]
  br i1 %22, label %23, label %39

23:                                               ; preds = %21
  %24 = load ptr, ptr %6, align 8
  %25 = load ptr, ptr %8, align 8
  %26 = getelementptr inbounds nuw %struct.config_enum_entry, ptr %25, i32 0, i32 0
  %27 = load ptr, ptr %26, align 8
  %28 = call i32 @pg_strcasecmp(ptr noundef %24, ptr noundef %27)
  %29 = icmp eq i32 %28, 0
  br i1 %29, label %30, label %35

30:                                               ; preds = %23
  %31 = load ptr, ptr %8, align 8
  %32 = getelementptr inbounds nuw %struct.config_enum_entry, ptr %31, i32 0, i32 1
  %33 = load i32, ptr %32, align 8
  %34 = load ptr, ptr %7, align 8
  store i32 %33, ptr %34, align 4
  store i1 true, ptr %4, align 1
  store i32 1, ptr %9, align 4
  br label %41

35:                                               ; preds = %23
  br label %36

36:                                               ; preds = %35
  %37 = load ptr, ptr %8, align 8
  %38 = getelementptr inbounds nuw %struct.config_enum_entry, ptr %37, i32 1
  store ptr %38, ptr %8, align 8
  br label %13, !llvm.loop !44

39:                                               ; preds = %21
  %40 = load ptr, ptr %7, align 8
  store i32 0, ptr %40, align 4
  store i1 false, ptr %4, align 1
  store i32 1, ptr %9, align 4
  br label %41

41:                                               ; preds = %39, %30
  call void @llvm.lifetime.end.p0(i64 8, ptr %8) #16
  %42 = load i1, ptr %4, align 1
  ret i1 %42
}