; Function Attrs: nounwind uwtable
define dso_local noundef zeroext i1 @config_enum_lookup_by_name(ptr noundef readonly captures(none) %0, ptr noundef %1, ptr noundef writeonly captures(none) %2) local_unnamed_addr #0 {
  %4 = getelementptr inbounds nuw i8, ptr %0, i64 160
  %5 = load ptr, ptr %4, align 8
  %.not14 = icmp eq ptr %5, null
  br i1 %.not14, label %.critedge, label %.lr.ph.preheader

.lr.ph.preheader:                                 ; preds = %3
  %6 = load ptr, ptr %5, align 8
  %.not1220 = icmp eq ptr %6, null
  br i1 %.not1220, label %.critedge, label %.lr.ph22

.lr.ph22:                                         ; preds = %.lr.ph.preheader, %.lr.ph
  %7 = phi ptr [ %14, %.lr.ph ], [ %6, %.lr.ph.preheader ]
  %.01521 = phi ptr [ %13, %.lr.ph ], [ %5, %.lr.ph.preheader ]
  %8 = tail call i32 @pg_strcasecmp(ptr noundef %1, ptr noundef nonnull %7) #29
  %9 = icmp eq i32 %8, 0
  br i1 %9, label %10, label %.lr.ph

10:                                               ; preds = %.lr.ph22
  %11 = getelementptr inbounds nuw i8, ptr %.01521, i64 8
  %12 = load i32, ptr %11, align 8
  br label %.critedge

.lr.ph:                                           ; preds = %.lr.ph22
  %13 = getelementptr inbounds nuw i8, ptr %.01521, i64 16
  %14 = load ptr, ptr %13, align 8
  %.not12 = icmp eq ptr %14, null
  br i1 %.not12, label %.critedge, label %.lr.ph22

.critedge:                                        ; preds = %.lr.ph, %.lr.ph.preheader, %3, %10
  %storemerge = phi i32 [ %12, %10 ], [ 0, %3 ], [ 0, %.lr.ph.preheader ], [ 0, %.lr.ph ]
  %.010 = phi i1 [ true, %10 ], [ false, %3 ], [ false, %.lr.ph.preheader ], [ false, %.lr.ph ]
  store i32 %storemerge, ptr %2, align 4
  ret i1 %.010
}